
/workspaces/2023-fall-yatcpu-repo/lab3/src/main/resources/say_goodbye.asmbin:     file format binary


Disassembly of section .data:

0000000000000000 <.data>:
       0:	10000137          	lui	sp,0x10000
       4:	00000097          	auipc	ra,0x0
       8:	1e4080e7          	jalr	484(ra) # 0x1e8
       c:	0000006f          	j	0xc
      10:	00000297          	auipc	t0,0x0
      14:	04028293          	addi	t0,t0,64 # 0x50
      18:	30529373          	csrrw	t1,mtvec,t0
      1c:	000022b7          	lui	t0,0x2
      20:	88828293          	addi	t0,t0,-1912 # 0x1888
      24:	30029373          	csrrw	t1,mstatus,t0
      28:	00008067          	ret
      2c:	800002b7          	lui	t0,0x80000
      30:	00528293          	addi	t0,t0,5 # 0xffffffff80000005
      34:	18029073          	csrw	satp,t0
      38:	00008067          	ret
      3c:	34302573          	csrr	a0,mtval
      40:	00008067          	ret
      44:	34102573          	csrr	a0,mepc
      48:	00008067          	ret
      4c:	00008067          	ret
      50:	34011073          	csrw	mscratch,sp
      54:	f8010113          	addi	sp,sp,-128 # 0xfffff80
      58:	00112223          	sw	ra,4(sp)
      5c:	00312623          	sw	gp,12(sp)
      60:	00412823          	sw	tp,16(sp)
      64:	00512a23          	sw	t0,20(sp)
      68:	00612c23          	sw	t1,24(sp)
      6c:	00712e23          	sw	t2,28(sp)
      70:	02412023          	sw	tp,32(sp)
      74:	02912223          	sw	s1,36(sp)
      78:	02a12423          	sw	a0,40(sp)
      7c:	02b12623          	sw	a1,44(sp)
      80:	02c12823          	sw	a2,48(sp)
      84:	02d12a23          	sw	a3,52(sp)
      88:	02e12c23          	sw	a4,56(sp)
      8c:	02f12e23          	sw	a5,60(sp)
      90:	05012023          	sw	a6,64(sp)
      94:	05112223          	sw	a7,68(sp)
      98:	05212423          	sw	s2,72(sp)
      9c:	05312623          	sw	s3,76(sp)
      a0:	05412823          	sw	s4,80(sp)
      a4:	05512a23          	sw	s5,84(sp)
      a8:	05612c23          	sw	s6,88(sp)
      ac:	05712e23          	sw	s7,92(sp)
      b0:	07812023          	sw	s8,96(sp)
      b4:	07912223          	sw	s9,100(sp)
      b8:	07a12423          	sw	s10,104(sp)
      bc:	07b12623          	sw	s11,108(sp)
      c0:	07c12823          	sw	t3,112(sp)
      c4:	07d12a23          	sw	t4,116(sp)
      c8:	07e12c23          	sw	t5,120(sp)
      cc:	07f12e23          	sw	t6,124(sp)
      d0:	34102573          	csrr	a0,mepc
      d4:	342025f3          	csrr	a1,mcause
      d8:	00000097          	auipc	ra,0x0
      dc:	000080e7          	jalr	ra # 0xd8
      e0:	00412083          	lw	ra,4(sp)
      e4:	00c12183          	lw	gp,12(sp)
      e8:	01012203          	lw	tp,16(sp)
      ec:	01412283          	lw	t0,20(sp)
      f0:	01812303          	lw	t1,24(sp)
      f4:	01c12383          	lw	t2,28(sp)
      f8:	02012203          	lw	tp,32(sp)
      fc:	02412483          	lw	s1,36(sp)
     100:	02812503          	lw	a0,40(sp)
     104:	02c12583          	lw	a1,44(sp)
     108:	03012603          	lw	a2,48(sp)
     10c:	03412683          	lw	a3,52(sp)
     110:	03812703          	lw	a4,56(sp)
     114:	03c12783          	lw	a5,60(sp)
     118:	04012803          	lw	a6,64(sp)
     11c:	04412883          	lw	a7,68(sp)
     120:	04812903          	lw	s2,72(sp)
     124:	04c12983          	lw	s3,76(sp)
     128:	05012a03          	lw	s4,80(sp)
     12c:	05412a83          	lw	s5,84(sp)
     130:	05812b03          	lw	s6,88(sp)
     134:	05c12b83          	lw	s7,92(sp)
     138:	06012c03          	lw	s8,96(sp)
     13c:	06412c83          	lw	s9,100(sp)
     140:	06812d03          	lw	s10,104(sp)
     144:	06c12d83          	lw	s11,108(sp)
     148:	07012e03          	lw	t3,112(sp)
     14c:	07412e83          	lw	t4,116(sp)
     150:	07812f03          	lw	t5,120(sp)
     154:	07c12f83          	lw	t6,124(sp)
     158:	34002173          	csrr	sp,mscratch
     15c:	30200073          	mret
     160:	ff010113          	addi	sp,sp,-16
     164:	00112623          	sw	ra,12(sp)
     168:	00812423          	sw	s0,8(sp)
     16c:	01010413          	addi	s0,sp,16
     170:	fea40ba3          	sb	a0,-9(s0)
     174:	ff744503          	lbu	a0,-9(s0)
     178:	400005b7          	lui	a1,0x40000
     17c:	00a5a823          	sw	a0,16(a1) # 0x40000010
     180:	00c12083          	lw	ra,12(sp)
     184:	00812403          	lw	s0,8(sp)
     188:	01010113          	addi	sp,sp,16
     18c:	00008067          	ret
     190:	ff010113          	addi	sp,sp,-16
     194:	00112623          	sw	ra,12(sp)
     198:	00812423          	sw	s0,8(sp)
     19c:	01010413          	addi	s0,sp,16
     1a0:	fea42a23          	sw	a0,-12(s0)
     1a4:	08700513          	li	a0,135
     1a8:	fea42823          	sw	a0,-16(s0)
     1ac:	0040006f          	j	0x1b0
     1b0:	ff442503          	lw	a0,-12(s0)
     1b4:	fff50593          	addi	a1,a0,-1
     1b8:	feb42a23          	sw	a1,-12(s0)
     1bc:	00051463          	bnez	a0,0x1c4
     1c0:	0180006f          	j	0x1d8
     1c4:	0040006f          	j	0x1c8
     1c8:	ff042503          	lw	a0,-16(s0)
     1cc:	00150513          	addi	a0,a0,1
     1d0:	fea42823          	sw	a0,-16(s0)
     1d4:	fddff06f          	j	0x1b0
     1d8:	00c12083          	lw	ra,12(sp)
     1dc:	00812403          	lw	s0,8(sp)
     1e0:	01010113          	addi	sp,sp,16
     1e4:	00008067          	ret
     1e8:	fe010113          	addi	sp,sp,-32
     1ec:	00112e23          	sw	ra,28(sp)
     1f0:	00812c23          	sw	s0,24(sp)
     1f4:	02010413          	addi	s0,sp,32
     1f8:	00000513          	li	a0,0
     1fc:	fea42a23          	sw	a0,-12(s0)
     200:	00002537          	lui	a0,0x2
     204:	00050513          	mv	a0,a0
     208:	fea42823          	sw	a0,-16(s0)
     20c:	0040006f          	j	0x210
     210:	ff042503          	lw	a0,-16(s0)
     214:	fea42623          	sw	a0,-20(s0)
     218:	0040006f          	j	0x21c
     21c:	fec42503          	lw	a0,-20(s0)
     220:	00054503          	lbu	a0,0(a0) # 0x2000
     224:	00051463          	bnez	a0,0x22c
     228:	0340006f          	j	0x25c
     22c:	0040006f          	j	0x230
     230:	fec42503          	lw	a0,-20(s0)
     234:	00054503          	lbu	a0,0(a0)
     238:	00000097          	auipc	ra,0x0
     23c:	f28080e7          	jalr	-216(ra) # 0x160
     240:	fec42503          	lw	a0,-20(s0)
     244:	00150513          	addi	a0,a0,1
     248:	fea42623          	sw	a0,-20(s0)
     24c:	1f400513          	li	a0,500
     250:	00000097          	auipc	ra,0x0
     254:	f40080e7          	jalr	-192(ra) # 0x190
     258:	fc5ff06f          	j	0x21c
     25c:	1f400513          	li	a0,500
     260:	00000097          	auipc	ra,0x0
     264:	f30080e7          	jalr	-208(ra) # 0x190
     268:	0040006f          	j	0x26c
     26c:	00000513          	li	a0,0
     270:	01c12083          	lw	ra,28(sp)
     274:	01812403          	lw	s0,24(sp)
     278:	02010113          	addi	sp,sp,32
     27c:	00008067          	ret
	...
    1000:	654e                	ld	a0,208(sp)
    1002:	6576                	ld	a0,344(sp)
    1004:	2072                	fld	ft0,280(sp)
    1006:	6e6e6f67          	.insn	4, 0x6e6e6f67
    100a:	2061                	.insn	2, 0x2061
    100c:	65766967          	.insn	4, 0x65766967
    1010:	7920                	ld	s0,112(a0)
    1012:	7520756f          	jal	a0,0x8764
    1016:	7e70                	ld	a2,248(a2)
    1018:	4e20                	lw	s0,88(a2)
    101a:	7665                	lui	a2,0xffff9
    101c:	7265                	lui	tp,0xffff9
    101e:	6720                	ld	s0,72(a4)
    1020:	616e6e6f          	jal	t3,0xe7636
    1024:	6c20                	ld	s0,88(s0)
    1026:	7465                	lui	s0,0xffff9
    1028:	7920                	ld	s0,112(a0)
    102a:	6420756f          	jal	a0,0x866c
    102e:	7e6e776f          	jal	a4,0xe8814
    1032:	4e0a                	lw	t3,128(sp)
    1034:	7665                	lui	a2,0xffff9
    1036:	7265                	lui	tp,0xffff9
    1038:	6720                	ld	s0,72(a4)
    103a:	616e6e6f          	jal	t3,0xe7650
    103e:	7220                	ld	s0,96(a2)
    1040:	6e75                	lui	t3,0x1d
    1042:	6120                	ld	s0,64(a0)
    1044:	6f72                	ld	t5,280(sp)
    1046:	6e75                	lui	t3,0x1d
    1048:	2064                	fld	fs1,192(s0)
    104a:	6e61                	lui	t3,0x18
    104c:	7e64                	ld	s1,248(a2)
    104e:	6420                	ld	s0,72(s0)
    1050:	7365                	lui	t1,0xffff9
    1052:	7265                	lui	tp,0xffff9
    1054:	2074                	fld	fa3,192(s0)
    1056:	6f79                	lui	t5,0x1e
    1058:	7e75                	lui	t3,0xffffd
    105a:	000a                	c.slli	zero,0x2
