
/workspaces/2023-fall-yatcpu-repo/lab2/src/main/resources/quicksort.asmbin:     file format binary


Disassembly of section .data:

0000000000000000 <.data>:
   0:	10000137          	lui	sp,0x10000
   4:	00000097          	auipc	ra,0x0
   8:	348080e7          	jalr	840(ra) # 0x34c
   c:	0000006f          	j	0xc
  10:	00000297          	auipc	t0,0x0
  14:	04028293          	addi	t0,t0,64 # 0x50
  18:	30529373          	csrrw	t1,mtvec,t0
  1c:	000022b7          	lui	t0,0x2
  20:	88828293          	addi	t0,t0,-1912 # 0x1888
  24:	30029373          	csrrw	t1,mstatus,t0
  28:	00008067          	ret
  2c:	800002b7          	lui	t0,0x80000
  30:	00528293          	addi	t0,t0,5 # 0xffffffff80000005
  34:	18029073          	csrw	satp,t0
  38:	00008067          	ret
  3c:	34302573          	csrr	a0,mtval
  40:	00008067          	ret
  44:	34102573          	csrr	a0,mepc
  48:	00008067          	ret
  4c:	00008067          	ret
  50:	34011073          	csrw	mscratch,sp
  54:	f8010113          	addi	sp,sp,-128 # 0xfffff80
  58:	00112223          	sw	ra,4(sp)
  5c:	00312623          	sw	gp,12(sp)
  60:	00412823          	sw	tp,16(sp)
  64:	00512a23          	sw	t0,20(sp)
  68:	00612c23          	sw	t1,24(sp)
  6c:	00712e23          	sw	t2,28(sp)
  70:	02412023          	sw	tp,32(sp)
  74:	02912223          	sw	s1,36(sp)
  78:	02a12423          	sw	a0,40(sp)
  7c:	02b12623          	sw	a1,44(sp)
  80:	02c12823          	sw	a2,48(sp)
  84:	02d12a23          	sw	a3,52(sp)
  88:	02e12c23          	sw	a4,56(sp)
  8c:	02f12e23          	sw	a5,60(sp)
  90:	05012023          	sw	a6,64(sp)
  94:	05112223          	sw	a7,68(sp)
  98:	05212423          	sw	s2,72(sp)
  9c:	05312623          	sw	s3,76(sp)
  a0:	05412823          	sw	s4,80(sp)
  a4:	05512a23          	sw	s5,84(sp)
  a8:	05612c23          	sw	s6,88(sp)
  ac:	05712e23          	sw	s7,92(sp)
  b0:	07812023          	sw	s8,96(sp)
  b4:	07912223          	sw	s9,100(sp)
  b8:	07a12423          	sw	s10,104(sp)
  bc:	07b12623          	sw	s11,108(sp)
  c0:	07c12823          	sw	t3,112(sp)
  c4:	07d12a23          	sw	t4,116(sp)
  c8:	07e12c23          	sw	t5,120(sp)
  cc:	07f12e23          	sw	t6,124(sp)
  d0:	34102573          	csrr	a0,mepc
  d4:	342025f3          	csrr	a1,mcause
  d8:	00000097          	auipc	ra,0x0
  dc:	000080e7          	jalr	ra # 0xd8
  e0:	00412083          	lw	ra,4(sp)
  e4:	00c12183          	lw	gp,12(sp)
  e8:	01012203          	lw	tp,16(sp)
  ec:	01412283          	lw	t0,20(sp)
  f0:	01812303          	lw	t1,24(sp)
  f4:	01c12383          	lw	t2,28(sp)
  f8:	02012203          	lw	tp,32(sp)
  fc:	02412483          	lw	s1,36(sp)
 100:	02812503          	lw	a0,40(sp)
 104:	02c12583          	lw	a1,44(sp)
 108:	03012603          	lw	a2,48(sp)
 10c:	03412683          	lw	a3,52(sp)
 110:	03812703          	lw	a4,56(sp)
 114:	03c12783          	lw	a5,60(sp)
 118:	04012803          	lw	a6,64(sp)
 11c:	04412883          	lw	a7,68(sp)
 120:	04812903          	lw	s2,72(sp)
 124:	04c12983          	lw	s3,76(sp)
 128:	05012a03          	lw	s4,80(sp)
 12c:	05412a83          	lw	s5,84(sp)
 130:	05812b03          	lw	s6,88(sp)
 134:	05c12b83          	lw	s7,92(sp)
 138:	06012c03          	lw	s8,96(sp)
 13c:	06412c83          	lw	s9,100(sp)
 140:	06812d03          	lw	s10,104(sp)
 144:	06c12d83          	lw	s11,108(sp)
 148:	07012e03          	lw	t3,112(sp)
 14c:	07412e83          	lw	t4,116(sp)
 150:	07812f03          	lw	t5,120(sp)
 154:	07c12f83          	lw	t6,124(sp)
 158:	34002173          	csrr	sp,mscratch
 15c:	30200073          	mret
 160:	fd010113          	addi	sp,sp,-48
 164:	02112623          	sw	ra,44(sp)
 168:	02812423          	sw	s0,40(sp)
 16c:	03010413          	addi	s0,sp,48
 170:	fea42a23          	sw	a0,-12(s0)
 174:	feb42823          	sw	a1,-16(s0)
 178:	fec42623          	sw	a2,-20(s0)
 17c:	ff042503          	lw	a0,-16(s0)
 180:	fec42583          	lw	a1,-20(s0)
 184:	00b55463          	bge	a0,a1,0x18c
 188:	00c0006f          	j	0x194
 18c:	0040006f          	j	0x190
 190:	1ac0006f          	j	0x33c
 194:	ff442503          	lw	a0,-12(s0)
 198:	ff042583          	lw	a1,-16(s0)
 19c:	00259593          	slli	a1,a1,0x2
 1a0:	00b50533          	add	a0,a0,a1
 1a4:	00052503          	lw	a0,0(a0)
 1a8:	fea42423          	sw	a0,-24(s0)
 1ac:	ff042503          	lw	a0,-16(s0)
 1b0:	fea42223          	sw	a0,-28(s0)
 1b4:	fec42503          	lw	a0,-20(s0)
 1b8:	fea42023          	sw	a0,-32(s0)
 1bc:	0040006f          	j	0x1c0
 1c0:	fe442503          	lw	a0,-28(s0)
 1c4:	fe042583          	lw	a1,-32(s0)
 1c8:	00b54463          	blt	a0,a1,0x1d0
 1cc:	1240006f          	j	0x2f0
 1d0:	0040006f          	j	0x1d4
 1d4:	0040006f          	j	0x1d8
 1d8:	ff442503          	lw	a0,-12(s0)
 1dc:	fe042583          	lw	a1,-32(s0)
 1e0:	00259593          	slli	a1,a1,0x2
 1e4:	00b50533          	add	a0,a0,a1
 1e8:	00052503          	lw	a0,0(a0)
 1ec:	fe842583          	lw	a1,-24(s0)
 1f0:	00000613          	li	a2,0
 1f4:	fcc42e23          	sw	a2,-36(s0)
 1f8:	00b55463          	bge	a0,a1,0x200
 1fc:	01c0006f          	j	0x218
 200:	0040006f          	j	0x204
 204:	fe442503          	lw	a0,-28(s0)
 208:	fe042583          	lw	a1,-32(s0)
 20c:	00b52533          	slt	a0,a0,a1
 210:	fca42e23          	sw	a0,-36(s0)
 214:	0040006f          	j	0x218
 218:	fdc42503          	lw	a0,-36(s0)
 21c:	00157513          	andi	a0,a0,1
 220:	00051463          	bnez	a0,0x228
 224:	0180006f          	j	0x23c
 228:	0040006f          	j	0x22c
 22c:	fe042503          	lw	a0,-32(s0)
 230:	fff50513          	addi	a0,a0,-1
 234:	fea42023          	sw	a0,-32(s0)
 238:	fa1ff06f          	j	0x1d8
 23c:	ff442583          	lw	a1,-12(s0)
 240:	fe042503          	lw	a0,-32(s0)
 244:	00251513          	slli	a0,a0,0x2
 248:	00a58533          	add	a0,a1,a0
 24c:	00052503          	lw	a0,0(a0)
 250:	fe442603          	lw	a2,-28(s0)
 254:	00261613          	slli	a2,a2,0x2
 258:	00c585b3          	add	a1,a1,a2
 25c:	00a5a023          	sw	a0,0(a1)
 260:	0040006f          	j	0x264
 264:	ff442503          	lw	a0,-12(s0)
 268:	fe442583          	lw	a1,-28(s0)
 26c:	00259593          	slli	a1,a1,0x2
 270:	00b50533          	add	a0,a0,a1
 274:	00052503          	lw	a0,0(a0)
 278:	fe842583          	lw	a1,-24(s0)
 27c:	00000613          	li	a2,0
 280:	fcc42c23          	sw	a2,-40(s0)
 284:	00b54463          	blt	a0,a1,0x28c
 288:	01c0006f          	j	0x2a4
 28c:	0040006f          	j	0x290
 290:	fe442503          	lw	a0,-28(s0)
 294:	fe042583          	lw	a1,-32(s0)
 298:	00b52533          	slt	a0,a0,a1
 29c:	fca42c23          	sw	a0,-40(s0)
 2a0:	0040006f          	j	0x2a4
 2a4:	fd842503          	lw	a0,-40(s0)
 2a8:	00157513          	andi	a0,a0,1
 2ac:	00051463          	bnez	a0,0x2b4
 2b0:	0180006f          	j	0x2c8
 2b4:	0040006f          	j	0x2b8
 2b8:	fe442503          	lw	a0,-28(s0)
 2bc:	00150513          	addi	a0,a0,1
 2c0:	fea42223          	sw	a0,-28(s0)
 2c4:	fa1ff06f          	j	0x264
 2c8:	ff442583          	lw	a1,-12(s0)
 2cc:	fe442503          	lw	a0,-28(s0)
 2d0:	00251513          	slli	a0,a0,0x2
 2d4:	00a58533          	add	a0,a1,a0
 2d8:	00052503          	lw	a0,0(a0)
 2dc:	fe042603          	lw	a2,-32(s0)
 2e0:	00261613          	slli	a2,a2,0x2
 2e4:	00c585b3          	add	a1,a1,a2
 2e8:	00a5a023          	sw	a0,0(a1)
 2ec:	ed5ff06f          	j	0x1c0
 2f0:	fe842503          	lw	a0,-24(s0)
 2f4:	ff442583          	lw	a1,-12(s0)
 2f8:	fe442603          	lw	a2,-28(s0)
 2fc:	00261613          	slli	a2,a2,0x2
 300:	00c585b3          	add	a1,a1,a2
 304:	00a5a023          	sw	a0,0(a1)
 308:	ff442503          	lw	a0,-12(s0)
 30c:	ff042583          	lw	a1,-16(s0)
 310:	fe442603          	lw	a2,-28(s0)
 314:	fff60613          	addi	a2,a2,-1
 318:	00000097          	auipc	ra,0x0
 31c:	e48080e7          	jalr	-440(ra) # 0x160
 320:	ff442503          	lw	a0,-12(s0)
 324:	fe442583          	lw	a1,-28(s0)
 328:	00158593          	addi	a1,a1,1
 32c:	fec42603          	lw	a2,-20(s0)
 330:	00000097          	auipc	ra,0x0
 334:	e30080e7          	jalr	-464(ra) # 0x160
 338:	0040006f          	j	0x33c
 33c:	02c12083          	lw	ra,44(sp)
 340:	02812403          	lw	s0,40(sp)
 344:	03010113          	addi	sp,sp,48
 348:	00008067          	ret
 34c:	fc010113          	addi	sp,sp,-64
 350:	02112e23          	sw	ra,60(sp)
 354:	02812c23          	sw	s0,56(sp)
 358:	04010413          	addi	s0,sp,64
 35c:	00000593          	li	a1,0
 360:	feb42a23          	sw	a1,-12(s0)
 364:	00600513          	li	a0,6
 368:	fca42623          	sw	a0,-52(s0)
 36c:	00200513          	li	a0,2
 370:	fca42823          	sw	a0,-48(s0)
 374:	00400513          	li	a0,4
 378:	fca42a23          	sw	a0,-44(s0)
 37c:	00500513          	li	a0,5
 380:	fca42c23          	sw	a0,-40(s0)
 384:	00300513          	li	a0,3
 388:	fca42e23          	sw	a0,-36(s0)
 38c:	00100513          	li	a0,1
 390:	fca42223          	sw	a0,-60(s0)
 394:	fea42023          	sw	a0,-32(s0)
 398:	feb42223          	sw	a1,-28(s0)
 39c:	00900613          	li	a2,9
 3a0:	fec42423          	sw	a2,-24(s0)
 3a4:	00700513          	li	a0,7
 3a8:	fea42623          	sw	a0,-20(s0)
 3ac:	00800513          	li	a0,8
 3b0:	fea42823          	sw	a0,-16(s0)
 3b4:	fcc40513          	addi	a0,s0,-52
 3b8:	00000097          	auipc	ra,0x0
 3bc:	da8080e7          	jalr	-600(ra) # 0x160
 3c0:	fc442503          	lw	a0,-60(s0)
 3c4:	fca42423          	sw	a0,-56(s0)
 3c8:	0040006f          	j	0x3cc
 3cc:	fc842583          	lw	a1,-56(s0)
 3d0:	00a00513          	li	a0,10
 3d4:	00b55463          	bge	a0,a1,0x3dc
 3d8:	0340006f          	j	0x40c
 3dc:	0040006f          	j	0x3e0
 3e0:	fc842503          	lw	a0,-56(s0)
 3e4:	00251593          	slli	a1,a0,0x2
 3e8:	fcc40513          	addi	a0,s0,-52
 3ec:	00a58533          	add	a0,a1,a0
 3f0:	ffc52503          	lw	a0,-4(a0)
 3f4:	00a5a023          	sw	a0,0(a1)
 3f8:	0040006f          	j	0x3fc
 3fc:	fc842503          	lw	a0,-56(s0)
 400:	00150513          	addi	a0,a0,1
 404:	fca42423          	sw	a0,-56(s0)
 408:	fc5ff06f          	j	0x3cc
 40c:	ff442503          	lw	a0,-12(s0)
 410:	03c12083          	lw	ra,60(sp)
 414:	03812403          	lw	s0,56(sp)
 418:	04010113          	addi	sp,sp,64
 41c:	00008067          	ret
